; Function Attrs: mustprogress nofree norecurse nosync nounwind willreturn memory(argmem: readwrite) uwtable
define range(i64 1, 6) i64 @ZSTD_resetDStream(ptr noundef captures(none) initializes((30176, 30180), (30236, 30240), (30332, 30336)) %0) local_unnamed_addr #7 {
  %2 = getelementptr inbounds nuw i8, ptr %0, i64 30236
  store i32 0, ptr %2, align 4, !tbaa !127
  %3 = getelementptr inbounds nuw i8, ptr %0, i64 30332
  store i32 0, ptr %3, align 4, !tbaa !26
  %4 = getelementptr inbounds nuw i8, ptr %0, i64 30176
  store i32 1, ptr %4, align 8, !tbaa !28
  %5 = getelementptr inbounds nuw i8, ptr %0, i64 30104
  %6 = load i32, ptr %5, align 8, !tbaa !34
  %7 = icmp eq i32 %6, 0
  %8 = select i1 %7, i64 5, i64 1
  ret i64 %8
}